target datalayout = "e-m:e-p270:32:32-p271:32:32-p272:64:64-i64:64-i128:128-f80:128-n8:16:32:64-S128"
target triple = "x86_64-pc-linux-gnu"

%struct.mbedtls_dhm_context = type { %struct.mbedtls_mpi, %struct.mbedtls_mpi, %struct.mbedtls_mpi, %struct.mbedtls_mpi, %struct.mbedtls_mpi, %struct.mbedtls_mpi, %struct.mbedtls_mpi, %struct.mbedtls_mpi, %struct.mbedtls_mpi, %struct.mbedtls_mpi }
%struct.mbedtls_mpi = type { ptr, i16, i16 }

@.str = private unnamed_addr constant [117 x i8] c"generated/home/dtcxzyw/WorkSpace/Projects/compilers/llvm-opt-benchmark/bench/lief/bench_build/mbed_src/library/dhm.c\00", align 1

; Function Attrs: inlinehint nounwind uwtable
define internal i32 @mbedtls_error_add(i32 noundef %0, i32 noundef %1, ptr noundef %2, i32 noundef %3) #4 {
  %5 = alloca i32, align 4
  %6 = alloca i32, align 4
  %7 = alloca ptr, align 8
  %8 = alloca i32, align 4
  store i32 %0, ptr %5, align 4, !tbaa !8
  store i32 %1, ptr %6, align 4, !tbaa !8
  store ptr %2, ptr %7, align 8, !tbaa !15
  store i32 %3, ptr %8, align 4, !tbaa !8
  %9 = load i32, ptr %5, align 4, !tbaa !8
  %10 = load i32, ptr %6, align 4, !tbaa !8
  %11 = add nsw i32 %9, %10
  ret i32 %11
}

; Function Attrs: nounwind uwtable
define hidden i64 @mbedtls_dhm_get_len(ptr noundef %0) #0 {
  %2 = alloca ptr, align 8
  store ptr %0, ptr %2, align 8, !tbaa !3
  %3 = load ptr, ptr %2, align 8, !tbaa !3
  %4 = getelementptr inbounds nuw %struct.mbedtls_dhm_context, ptr %3, i32 0, i32 0
  %5 = call i64 @mbedtls_mpi_size(ptr noundef %4)
  ret i64 %5
}

; Function Attrs: nounwind uwtable
define hidden i32 @mbedtls_dhm_read_public(ptr noundef %0, ptr noundef %1, i64 noundef %2) #0 {
  %4 = alloca i32, align 4
  %5 = alloca ptr, align 8
  %6 = alloca ptr, align 8
  %7 = alloca i64, align 8
  %8 = alloca i32, align 4
  %9 = alloca i32, align 4
  store ptr %0, ptr %5, align 8, !tbaa !3
  store ptr %1, ptr %6, align 8, !tbaa !15
  store i64 %2, ptr %7, align 8, !tbaa !20
  call void @llvm.lifetime.start.p0(i64 4, ptr %8) #10
  store i32 -110, ptr %8, align 4, !tbaa !8
  %10 = load i64, ptr %7, align 8, !tbaa !20
  %11 = icmp ult i64 %10, 1
  br i1 %11, label %17, label %12

12:                                               ; preds = %3
  %13 = load i64, ptr %7, align 8, !tbaa !20
  %14 = load ptr, ptr %5, align 8, !tbaa !3
  %15 = call i64 @mbedtls_dhm_get_len(ptr noundef %14)
  %16 = icmp ugt i64 %13, %15
  br i1 %16, label %17, label %18

17:                                               ; preds = %12, %3
  store i32 -12416, ptr %4, align 4
  store i32 1, ptr %9, align 4
  br label %29

18:                                               ; preds = %12
  %19 = load ptr, ptr %5, align 8, !tbaa !3
  %20 = getelementptr inbounds nuw %struct.mbedtls_dhm_context, ptr %19, i32 0, i32 4
  %21 = load ptr, ptr %6, align 8, !tbaa !15
  %22 = load i64, ptr %7, align 8, !tbaa !20
  %23 = call i32 @mbedtls_mpi_read_binary(ptr noundef %20, ptr noundef %21, i64 noundef %22)
  store i32 %23, ptr %8, align 4, !tbaa !8
  %24 = icmp ne i32 %23, 0
  br i1 %24, label %25, label %28

25:                                               ; preds = %18
  %26 = load i32, ptr %8, align 4, !tbaa !8
  %27 = call i32 @mbedtls_error_add(i32 noundef -12800, i32 noundef %26, ptr noundef @.str, i32 noundef 299)
  store i32 %27, ptr %4, align 4
  store i32 1, ptr %9, align 4
  br label %29

28:                                               ; preds = %18
  store i32 0, ptr %4, align 4
  store i32 1, ptr %9, align 4
  br label %29

29:                                               ; preds = %28, %25, %17
  call void @llvm.lifetime.end.p0(i64 4, ptr %8) #10
  %30 = load i32, ptr %4, align 4
  ret i32 %30
}