; Function Attrs: nounwind uwtable
define hidden range(i32 -2147483648, 2147470848) i32 @mbedtls_dhm_read_public(ptr noundef %0, ptr noundef %1, i64 noundef %2) local_unnamed_addr #2 {
  %4 = icmp eq i64 %2, 0
  br i1 %4, label %12, label %5

5:                                                ; preds = %3
  %6 = tail call i64 @mbedtls_mpi_size(ptr noundef %0) #10
  %7 = icmp ugt i64 %2, %6
  br i1 %7, label %12, label %8

8:                                                ; preds = %5
  %9 = getelementptr inbounds nuw i8, ptr %0, i64 64
  %10 = tail call i32 @mbedtls_mpi_read_binary(ptr noundef nonnull %9, ptr noundef %1, i64 noundef %2) #10
  %.not = icmp eq i32 %10, 0
  %11 = add nsw i32 %10, -12800
  %spec.select = select i1 %.not, i32 0, i32 %11
  br label %12

12:                                               ; preds = %8, %3, %5
  %.0 = phi i32 [ -12416, %5 ], [ -12416, %3 ], [ %spec.select, %8 ]
  ret i32 %.0
}